target datalayout = "e-m:e-p270:32:32-p271:32:32-p272:64:64-i64:64-i128:128-f80:128-n8:16:32:64-S128"
target triple = "x86_64-pc-linux-gnu"

%struct.anon = type { ptr, ptr, ptr, i32 }

@sane_ctype = external constant [256 x i8], align 16

; Function Attrs: inlinehint nounwind uwtable
define internal i32 @sane_case(i32 noundef %0, i32 noundef %1) #2 {
  %3 = alloca i32, align 4
  %4 = alloca i32, align 4
  store i32 %0, ptr %3, align 4, !tbaa !11
  store i32 %1, ptr %4, align 4, !tbaa !11
  %5 = load i32, ptr %3, align 4, !tbaa !11
  %6 = trunc i32 %5 to i8
  %7 = zext i8 %6 to i64
  %8 = getelementptr inbounds nuw [256 x i8], ptr @sane_ctype, i64 0, i64 %7
  %9 = load i8, ptr %8, align 1, !tbaa !19
  %10 = zext i8 %9 to i32
  %11 = and i32 %10, 4
  %12 = icmp ne i32 %11, 0
  br i1 %12, label %13, label %18

13:                                               ; preds = %2
  %14 = load i32, ptr %3, align 4, !tbaa !11
  %15 = and i32 %14, -33
  %16 = load i32, ptr %4, align 4, !tbaa !11
  %17 = or i32 %15, %16
  store i32 %17, ptr %3, align 4, !tbaa !11
  br label %18

18:                                               ; preds = %13, %2
  %19 = load i32, ptr %3, align 4, !tbaa !11
  ret i32 %19
}

; Function Attrs: nounwind uwtable
define internal void @prepare_msg_ids() #0 {
  %1 = alloca i32, align 4
  %2 = alloca i32, align 4
  %3 = alloca ptr, align 8
  %4 = alloca i32, align 4
  %5 = alloca ptr, align 8
  call void @llvm.lifetime.start.p0(i64 4, ptr %1) #11
  %6 = load ptr, ptr getelementptr inbounds nuw (%struct.anon, ptr @msg_id_info, i32 0, i32 1), align 8, !tbaa !17
  %7 = icmp ne ptr %6, null
  br i1 %7, label %8, label %9

8:                                                ; preds = %0
  store i32 1, ptr %2, align 4
  br label %105

9:                                                ; preds = %0
  store i32 0, ptr %1, align 4, !tbaa !11
  br label %10

10:                                               ; preds = %101, %9
  %11 = load i32, ptr %1, align 4, !tbaa !11
  %12 = icmp slt i32 %11, 66
  br i1 %12, label %13, label %104

13:                                               ; preds = %10
  call void @llvm.lifetime.start.p0(i64 8, ptr %3) #11
  %14 = load i32, ptr %1, align 4, !tbaa !11
  %15 = sext i32 %14 to i64
  %16 = getelementptr inbounds [67 x %struct.anon], ptr @msg_id_info, i64 0, i64 %15
  %17 = getelementptr inbounds nuw %struct.anon, ptr %16, i32 0, i32 0
  %18 = load ptr, ptr %17, align 16, !tbaa !18
  store ptr %18, ptr %3, align 8, !tbaa !9
  call void @llvm.lifetime.start.p0(i64 4, ptr %4) #11
  %19 = load ptr, ptr %3, align 8, !tbaa !9
  %20 = call i64 @strlen(ptr noundef %19) #12
  %21 = trunc i64 %20 to i32
  store i32 %21, ptr %4, align 4, !tbaa !11
  call void @llvm.lifetime.start.p0(i64 8, ptr %5) #11
  %22 = load i32, ptr %4, align 4, !tbaa !11
  %23 = sext i32 %22 to i64
  %24 = call ptr @xmalloc(i64 noundef %23)
  store ptr %24, ptr %5, align 8, !tbaa !9
  %25 = load ptr, ptr %5, align 8, !tbaa !9
  %26 = load i32, ptr %1, align 4, !tbaa !11
  %27 = sext i32 %26 to i64
  %28 = getelementptr inbounds [67 x %struct.anon], ptr @msg_id_info, i64 0, i64 %27
  %29 = getelementptr inbounds nuw %struct.anon, ptr %28, i32 0, i32 1
  store ptr %25, ptr %29, align 8, !tbaa !17
  br label %30

30:                                               ; preds = %51, %13
  %31 = load ptr, ptr %3, align 8, !tbaa !9
  %32 = load i8, ptr %31, align 1, !tbaa !19
  %33 = icmp ne i8 %32, 0
  br i1 %33, label %34, label %52

34:                                               ; preds = %30
  %35 = load ptr, ptr %3, align 8, !tbaa !9
  %36 = load i8, ptr %35, align 1, !tbaa !19
  %37 = sext i8 %36 to i32
  %38 = icmp eq i32 %37, 95
  br i1 %38, label %39, label %42

39:                                               ; preds = %34
  %40 = load ptr, ptr %3, align 8, !tbaa !9
  %41 = getelementptr inbounds nuw i8, ptr %40, i32 1
  store ptr %41, ptr %3, align 8, !tbaa !9
  br label %51

42:                                               ; preds = %34
  %43 = load ptr, ptr %3, align 8, !tbaa !9
  %44 = getelementptr inbounds nuw i8, ptr %43, i32 1
  store ptr %44, ptr %3, align 8, !tbaa !9
  %45 = load i8, ptr %43, align 1, !tbaa !19
  %46 = zext i8 %45 to i32
  %47 = call i32 @sane_case(i32 noundef %46, i32 noundef 32)
  %48 = trunc i32 %47 to i8
  %49 = load ptr, ptr %5, align 8, !tbaa !9
  %50 = getelementptr inbounds nuw i8, ptr %49, i32 1
  store ptr %50, ptr %5, align 8, !tbaa !9
  store i8 %48, ptr %49, align 1, !tbaa !19
  br label %51

51:                                               ; preds = %42, %39
  br label %30, !llvm.loop !20

52:                                               ; preds = %30
  %53 = load ptr, ptr %5, align 8, !tbaa !9
  store i8 0, ptr %53, align 1, !tbaa !19
  %54 = load i32, ptr %1, align 4, !tbaa !11
  %55 = sext i32 %54 to i64
  %56 = getelementptr inbounds [67 x %struct.anon], ptr @msg_id_info, i64 0, i64 %55
  %57 = getelementptr inbounds nuw %struct.anon, ptr %56, i32 0, i32 0
  %58 = load ptr, ptr %57, align 16, !tbaa !18
  store ptr %58, ptr %3, align 8, !tbaa !9
  %59 = load i32, ptr %4, align 4, !tbaa !11
  %60 = sext i32 %59 to i64
  %61 = call ptr @xmalloc(i64 noundef %60)
  store ptr %61, ptr %5, align 8, !tbaa !9
  %62 = load ptr, ptr %5, align 8, !tbaa !9
  %63 = load i32, ptr %1, align 4, !tbaa !11
  %64 = sext i32 %63 to i64
  %65 = getelementptr inbounds [67 x %struct.anon], ptr @msg_id_info, i64 0, i64 %64
  %66 = getelementptr inbounds nuw %struct.anon, ptr %65, i32 0, i32 2
  store ptr %62, ptr %66, align 16, !tbaa !13
  br label %67

67:                                               ; preds = %98, %52
  %68 = load ptr, ptr %3, align 8, !tbaa !9
  %69 = load i8, ptr %68, align 1, !tbaa !19
  %70 = icmp ne i8 %69, 0
  br i1 %70, label %71, label %99

71:                                               ; preds = %67
  %72 = load ptr, ptr %3, align 8, !tbaa !9
  %73 = load i8, ptr %72, align 1, !tbaa !19
  %74 = sext i8 %73 to i32
  %75 = icmp eq i32 %74, 95
  br i1 %75, label %76, label %89

76:                                               ; preds = %71
  %77 = load ptr, ptr %3, align 8, !tbaa !9
  %78 = getelementptr inbounds nuw i8, ptr %77, i32 1
  store ptr %78, ptr %3, align 8, !tbaa !9
  %79 = load ptr, ptr %3, align 8, !tbaa !9
  %80 = load i8, ptr %79, align 1, !tbaa !19
  %81 = icmp ne i8 %80, 0
  br i1 %81, label %82, label %88

82:                                               ; preds = %76
  %83 = load ptr, ptr %3, align 8, !tbaa !9
  %84 = getelementptr inbounds nuw i8, ptr %83, i32 1
  store ptr %84, ptr %3, align 8, !tbaa !9
  %85 = load i8, ptr %83, align 1, !tbaa !19
  %86 = load ptr, ptr %5, align 8, !tbaa !9
  %87 = getelementptr inbounds nuw i8, ptr %86, i32 1
  store ptr %87, ptr %5, align 8, !tbaa !9
  store i8 %85, ptr %86, align 1, !tbaa !19
  br label %88

88:                                               ; preds = %82, %76
  br label %98

89:                                               ; preds = %71
  %90 = load ptr, ptr %3, align 8, !tbaa !9
  %91 = getelementptr inbounds nuw i8, ptr %90, i32 1
  store ptr %91, ptr %3, align 8, !tbaa !9
  %92 = load i8, ptr %90, align 1, !tbaa !19
  %93 = zext i8 %92 to i32
  %94 = call i32 @sane_case(i32 noundef %93, i32 noundef 32)
  %95 = trunc i32 %94 to i8
  %96 = load ptr, ptr %5, align 8, !tbaa !9
  %97 = getelementptr inbounds nuw i8, ptr %96, i32 1
  store ptr %97, ptr %5, align 8, !tbaa !9
  store i8 %95, ptr %96, align 1, !tbaa !19
  br label %98

98:                                               ; preds = %89, %88
  br label %67, !llvm.loop !21

99:                                               ; preds = %67
  %100 = load ptr, ptr %5, align 8, !tbaa !9
  store i8 0, ptr %100, align 1, !tbaa !19
  call void @llvm.lifetime.end.p0(i64 8, ptr %5) #11
  call void @llvm.lifetime.end.p0(i64 4, ptr %4) #11
  call void @llvm.lifetime.end.p0(i64 8, ptr %3) #11
  br label %101

101:                                              ; preds = %99
  %102 = load i32, ptr %1, align 4, !tbaa !11
  %103 = add nsw i32 %102, 1
  store i32 %103, ptr %1, align 4, !tbaa !11
  br label %10, !llvm.loop !22

104:                                              ; preds = %10
  store i32 0, ptr %2, align 4
  br label %105

105:                                              ; preds = %104, %8
  call void @llvm.lifetime.end.p0(i64 4, ptr %1) #11
  %106 = load i32, ptr %2, align 4
  switch i32 %106, label %108 [
    i32 0, label %107
    i32 1, label %107
  ]

107:                                              ; preds = %105, %105
  ret void

108:                                              ; preds = %105
  unreachable
}