; Function Attrs: nounwind uwtable
define internal fastcc void @prepare_msg_ids() unnamed_addr #0 {
  %1 = load ptr, ptr getelementptr inbounds nuw (i8, ptr @msg_id_info, i64 8), align 8, !tbaa !13
  %.not = icmp eq ptr %1, null
  br i1 %.not, label %.preheader, label %.loopexit

.preheader:                                       ; preds = %0, %37
  %indvars.iv = phi i64 [ %indvars.iv.next, %37 ], [ 0, %0 ]
  %2 = getelementptr inbounds nuw [67 x %struct.anon], ptr @msg_id_info, i64 0, i64 %indvars.iv
  %3 = load ptr, ptr %2, align 16, !tbaa !14
  %4 = tail call i64 @strlen(ptr noundef nonnull dereferenceable(1) %3) #17
  %sext = shl i64 %4, 32
  %5 = ashr exact i64 %sext, 32
  %6 = tail call ptr @xmalloc(i64 noundef %5) #16
  %7 = getelementptr inbounds nuw i8, ptr %2, i64 8
  store ptr %6, ptr %7, align 8, !tbaa !13
  br label %8

8:                                                ; preds = %17, %.preheader
  %.026 = phi ptr [ %3, %.preheader ], [ %.127, %17 ]
  %.0 = phi ptr [ %6, %.preheader ], [ %.1, %17 ]
  %9 = load i8, ptr %.026, align 1, !tbaa !15
  switch i8 %9, label %10 [
    i8 0, label %18
    i8 95, label %17
  ]

10:                                               ; preds = %8
  %11 = zext i8 %9 to i64
  %12 = getelementptr inbounds nuw [256 x i8], ptr @sane_ctype, i64 0, i64 %11
  %13 = load i8, ptr %12, align 1, !tbaa !15
  %14 = shl i8 %13, 3
  %15 = and i8 %14, 32
  %spec.select.i38 = or i8 %15, %9
  %16 = getelementptr inbounds nuw i8, ptr %.0, i64 1
  store i8 %spec.select.i38, ptr %.0, align 1, !tbaa !15
  br label %17

17:                                               ; preds = %8, %10
  %.1 = phi ptr [ %16, %10 ], [ %.0, %8 ]
  %.127 = getelementptr inbounds nuw i8, ptr %.026, i64 1
  br label %8, !llvm.loop !16

18:                                               ; preds = %8
  store i8 0, ptr %.0, align 1, !tbaa !15
  %19 = load ptr, ptr %2, align 16, !tbaa !14
  %20 = tail call ptr @xmalloc(i64 noundef %5) #16
  %21 = getelementptr inbounds nuw i8, ptr %2, i64 16
  store ptr %20, ptr %21, align 16, !tbaa !4
  br label %.outer

.outer:                                           ; preds = %.sink.split, %18
  %.228.ph = phi ptr [ %.329.ph, %.sink.split ], [ %19, %18 ]
  %.2.ph = phi ptr [ %36, %.sink.split ], [ %20, %18 ]
  br label %22

22:                                               ; preds = %.outer, %24
  %.228 = phi ptr [ %25, %24 ], [ %.228.ph, %.outer ]
  %23 = load i8, ptr %.228, align 1, !tbaa !15
  switch i8 %23, label %29 [
    i8 0, label %37
    i8 95, label %24
  ]

24:                                               ; preds = %22
  %25 = getelementptr inbounds nuw i8, ptr %.228, i64 1
  %26 = load i8, ptr %25, align 1, !tbaa !15
  %.not35 = icmp eq i8 %26, 0
  br i1 %.not35, label %22, label %27, !llvm.loop !17

27:                                               ; preds = %24
  %28 = getelementptr inbounds nuw i8, ptr %.228, i64 2
  br label %.sink.split

29:                                               ; preds = %22
  %30 = getelementptr inbounds nuw i8, ptr %.228, i64 1
  %31 = zext i8 %23 to i64
  %32 = getelementptr inbounds nuw [256 x i8], ptr @sane_ctype, i64 0, i64 %31
  %33 = load i8, ptr %32, align 1, !tbaa !15
  %34 = shl i8 %33, 3
  %35 = and i8 %34, 32
  %spec.select.i3637 = or i8 %35, %23
  br label %.sink.split

.sink.split:                                      ; preds = %29, %27
  %.sink = phi i8 [ %26, %27 ], [ %spec.select.i3637, %29 ]
  %.329.ph = phi ptr [ %28, %27 ], [ %30, %29 ]
  %36 = getelementptr inbounds nuw i8, ptr %.2.ph, i64 1
  store i8 %.sink, ptr %.2.ph, align 1, !tbaa !15
  br label %.outer, !llvm.loop !17

37:                                               ; preds = %22
  store i8 0, ptr %.2.ph, align 1, !tbaa !15
  %indvars.iv.next = add nuw nsw i64 %indvars.iv, 1
  %exitcond.not = icmp eq i64 %indvars.iv.next, 66
  br i1 %exitcond.not, label %.loopexit, label %.preheader, !llvm.loop !18

.loopexit:                                        ; preds = %37, %0
  ret void
}